(lp0
(lp1
F1543612654.148
aI1
aa(lp2
F1543612654.383
aI1
aa(lp3
F1543612654.585
aI1
aa(lp4
F1543612654.804
aI1
aa(lp5
F1543612654.995
aI1
aa(lp6
F1543612655.306
aI1
aa(lp7
F1543612655.5
aI1
aa(lp8
F1543612655.844
aI1
aa(lp9
F1543612656.02
aI1
aa(lp10
F1543612656.187
aI1
aa(lp11
F1543612656.429
aI1
aa(lp12
F1543612656.618
aI1
aa(lp13
F1543612656.906
aI1
aa(lp14
F1543612657.078
aI1
aa(lp15
F1543612657.251
aI1
aa(lp16
F1543612657.479
aI1
aa(lp17
F1543612658.91
aI1
aa(lp18
F1543612659.301
aI1
aa(lp19
F1543612659.603
aI1
aa(lp20
F1543612666.255
aI1
aa(lp21
F1543612666.692
aI1
aa(lp22
F1543612667.489
aI1
aa(lp23
F1543612667.88
aI1
aa(lp24
F1543612668.176
aI1
aa(lp25
F1543612668.426
aI1
aa(lp26
F1543612668.708
aI1
aa(lp27
F1543612669.192
aI1
aa(lp28
F1543612670.052
aI1
aa(lp29
F1543612670.38
aI1
aa(lp30
F1543612671.036
aI1
aa(lp31
F1543612671.315
aI1
aa(lp32
F1543612671.495
aI1
aa(lp33
F1543612671.695
aI1
aa(lp34
F1543612672.13
aI1
aa(lp35
F1543612672.571
aI1
aa(lp36
F1543612672.901
aI1
aa(lp37
F1543612673.056
aI1
aa(lp38
F1543612673.325
aI1
aa(lp39
F1543612673.552
aI1
aa(lp40
F1543612673.714
aI1
aa(lp41
F1543612673.933
aI1
aa(lp42
F1543612674.136
aI1
aa(lp43
F1543612674.447
aI1
aa(lp44
F1543612674.851
aI1
aa(lp45
F1543612675.009
aI1
aa(lp46
F1543612675.227
aI1
aa(lp47
F1543612675.439
aI1
aa(lp48
F1543612675.603
aI1
aa(lp49
F1543612675.784
aI1
aa(lp50
F1543612675.955
aI1
aa(lp51
F1543612676.131
aI1
aa(lp52
F1543612676.314
aI1
aa(lp53
F1543612676.502
aI1
aa(lp54
F1543612676.747
aI1
aa(lp55
F1543612676.983
aI1
aa(lp56
F1543612677.569
aI1
aa(lp57
F1543612677.871
aI1
aa(lp58
F1543612678.177
aI1
aa(lp59
F1543612678.402
aI1
aa(lp60
F1543612678.966
aI1
aa(lp61
F1543612679.196
aI1
aa(lp62
F1543612679.401
aI1
aa(lp63
F1543612679.595
aI1
aa(lp64
F1543612679.765
aI1
aa(lp65
F1543612680.148
aI1
aa(lp66
F1543612680.376
aI1
aa(lp67
F1543612680.742
aI1
aa(lp68
F1543612680.948
aI1
aa(lp69
F1543612681.34
aI1
aa(lp70
F1543612681.61
aI1
aa(lp71
F1543612681.92
aI1
aa(lp72
F1543612682.103
aI1
aa(lp73
F1543612682.339
aI1
aa(lp74
F1543612682.679
aI1
aa(lp75
F1543612683.02
aI1
aa(lp76
F1543612683.303
aI1
aa(lp77
F1543612683.471
aI1
aa(lp78
F1543612683.642
aI1
aa(lp79
F1543612683.823
aI1
aa(lp80
F1543612684.039
aI1
aa(lp81
F1543612684.244
aI1
aa(lp82
F1543612684.457
aI1
aa(lp83
F1543612684.674
aI1
aa(lp84
F1543612684.879
aI1
aa(lp85
F1543612685.05
aI1
aa(lp86
F1543612685.301
aI1
aa(lp87
F1543612685.533
aI1
aa(lp88
F1543612685.745
aI1
aa(lp89
F1543612686.045
aI1
aa(lp90
F1543612686.287
aI0
aa(lp91
F1543612686.685
aI0
aa(lp92
F1543612687.298
aI1
aa(lp93
F1543612687.53
aI1
aa(lp94
F1543612687.704
aI1
aa(lp95
F1543612687.957
aI1
aa(lp96
F1543612688.299
aI1
aa(lp97
F1543612688.485
aI1
aa(lp98
F1543612688.64
aI1
aa(lp99
F1543612689.128
aI1
aa(lp100
F1543612689.476
aI1
aa(lp101
F1543612689.686
aI1
aa(lp102
F1543612689.912
aI1
aa(lp103
F1543612690.248
aI1
aa(lp104
F1543612690.451
aI1
aa(lp105
F1543612690.659
aI1
aa(lp106
F1543612691.068
aI1
aa(lp107
F1543612691.262
aI0
aa(lp108
F1543612691.574
aI0
aa(lp109
F1543612691.79
aI0
aa(lp110
F1543612692.028
aI0
aa(lp111
F1543612692.19
aI0
aa(lp112
F1543612692.351
aI0
aa(lp113
F1543612692.559
aI0
aa(lp114
F1543612692.732
aI0
aa(lp115
F1543612692.954
aI0
aa(lp116
F1543612693.141
aI0
aa(lp117
F1543612693.3
aI0
aa(lp118
F1543612693.481
aI0
aa(lp119
F1543612693.661
aI0
aa(lp120
F1543612693.837
aI0
aa(lp121
F1543612693.999
aI0
aa(lp122
F1543612694.173
aI0
aa(lp123
F1543612694.342
aI0
aa(lp124
F1543612694.512
aI1
aa(lp125
F1543612694.789
aI1
aa(lp126
F1543612695.105
aI0
aa(lp127
F1543612695.355
aI0
aa(lp128
F1543612695.624
aI0
aa(lp129
F1543612695.86
aI0
aa(lp130
F1543612696.128
aI0
aa(lp131
F1543612696.29
aI0
aa(lp132
F1543612696.471
aI0
aa(lp133
F1543612696.654
aI0
aa(lp134
F1543612696.823
aI0
aa(lp135
F1543612697.061
aI0
aa(lp136
F1543612697.245
aI0
aa(lp137
F1543612697.455
aI0
aa(lp138
F1543612697.671
aI1
aa(lp139
F1543612697.831
aI1
aa(lp140
F1543612697.999
aI1
aa(lp141
F1543612698.165
aI1
aa(lp142
F1543612698.327
aI1
aa(lp143
F1543612698.603
aI1
aa(lp144
F1543612698.759
aI1
aa(lp145
F1543612698.95
aI0
aa(lp146
F1543612699.164
aI0
aa(lp147
F1543612699.351
aI1
aa(lp148
F1543612699.51
aI1
aa(lp149
F1543612699.674
aI1
aa(lp150
F1543612699.859
aI1
aa(lp151
F1543612700.305
aI1
aa(lp152
F1543612700.49
aI1
aa(lp153
F1543612700.649
aI1
aa(lp154
F1543612700.807
aI1
aa(lp155
F1543612700.971
aI1
aa(lp156
F1543612701.151
aI1
aa(lp157
F1543612701.305
aI1
aa(lp158
F1543612701.628
aI1
aa(lp159
F1543612702.188
aI1
aa(lp160
F1543612702.415
aI1
aa(lp161
F1543612702.777
aI1
aa(lp162
F1543612703.023
aI1
aa(lp163
F1543612703.259
aI1
aa(lp164
F1543612703.487
aI0
aa(lp165
F1543612703.728
aI0
aa(lp166
F1543612703.898
aI1
aa(lp167
F1543612704.051
aI1
aa(lp168
F1543612704.211
aI1
aa(lp169
F1543612704.354
aI1
aa(lp170
F1543612704.524
aI1
aa(lp171
F1543612704.945
aI1
aa.