ccollections
defaultdict
p0
(c__builtin__
list
p1
tp2
Rp3
S'time_stamp'
p4
(lp5
F1543575605.452
aF1543575605.561
aF1543575605.669
aF1543575605.774
aF1543575605.88
aF1543575605.989
aF1543575606.098
aF1543575606.208
aF1543575606.32
aF1543575606.433
aF1543575606.543
aF1543575606.676
aF1543575606.786
aF1543575606.899
aF1543575607.01
aF1543575607.137
aF1543575607.303
aF1543575607.428
aF1543575607.534
aF1543575607.65
aF1543575607.762
aF1543575607.871
aF1543575607.977
aF1543575608.09
aF1543575608.197
aF1543575608.306
aF1543575608.413
aF1543575608.518
aF1543575608.632
aF1543575608.741
aF1543575608.866
aF1543575609.0
aF1543575609.109
aF1543575609.218
aF1543575609.325
aF1543575609.432
aF1543575609.537
aF1543575609.653
aF1543575609.787
aF1543575609.903
aF1543575610.02
aF1543575610.134
aF1543575610.247
aF1543575610.377
aF1543575610.507
aF1543575610.627
aF1543575610.752
aF1543575610.866
aF1543575611.053
aF1543575611.198
aF1543575611.327
aF1543575611.438
aF1543575611.681
aF1543575611.803
aF1543575611.924
aF1543575612.286
aF1543575612.406
aF1543575612.512
aF1543575612.618
aF1543575612.726
aF1543575612.837
aF1543575612.949
aF1543575613.058
aF1543575613.192
aF1543575613.31
aF1543575613.431
aF1543575613.543
aF1543575613.671
aF1543575613.784
aF1543575613.893
aF1543575614.001
aF1543575614.123
aF1543575614.234
aF1543575614.346
aF1543575614.662
aF1543575614.774
aF1543575614.886
aF1543575614.998
aF1543575615.111
aF1543575615.234
aF1543575615.346
aF1543575615.47
aF1543575615.6
aF1543575615.711
aF1543575615.822
aF1543575615.938
aF1543575616.051
aF1543575616.166
aF1543575616.287
aF1543575616.401
aF1543575616.51
aF1543575616.623
aF1543575616.738
aF1543575616.849
aF1543575616.962
aF1543575617.072
aF1543575617.182
aF1543575617.295
aF1543575617.402
aF1543575617.525
aF1543575617.733
aF1543575617.855
aF1543575617.998
aF1543575618.133
aF1543575618.433
aF1543575618.546
aF1543575618.657
aF1543575618.876
aF1543575619.055
aF1543575619.198
aF1543575619.311
aF1543575619.422
aF1543575619.528
aF1543575619.638
aF1543575619.748
aF1543575619.865
aF1543575619.991
aF1543575620.127
aF1543575620.243
aF1543575620.36
aF1543575620.479
aF1543575620.596
aF1543575620.705
aF1543575620.82
aF1543575620.927
aF1543575621.044
aF1543575621.177
aF1543575621.323
aF1543575621.457
aF1543575621.57
aF1543575621.689
aF1543575621.807
aF1543575621.916
aF1543575622.025
aF1543575622.138
aF1543575622.557
aF1543575622.731
aF1543575622.906
aF1543575623.285
aF1543575623.746
aF1543575624.041
aF1543575624.25
aF1543575624.523
aF1543575624.742
aF1543575624.889
aF1543575625.03
aF1543575625.142
aF1543575625.254
aF1543575625.366
aF1543575625.494
aF1543575625.614
aF1543575625.726
aF1543575625.841
aF1543575625.958
aF1543575626.065
aF1543575626.176
aF1543575626.351
aF1543575626.46
aF1543575626.578
aF1543575626.694
aF1543575626.823
aF1543575626.937
aF1543575627.052
aF1543575627.165
aF1543575627.275
aF1543575627.38
aF1543575627.507
aF1543575627.629
aF1543575627.738
aF1543575627.847
aF1543575627.959
aF1543575628.069
aF1543575628.18
aF1543575628.417
aF1543575628.576
aF1543575628.747
aF1543575628.857
aF1543575628.965
aF1543575629.073
aF1543575629.184
aF1543575629.295
aF1543575629.563
aF1543575629.674
aF1543575629.807
aF1543575629.919
aF1543575630.053
aF1543575630.168
aF1543575630.421
aF1543575630.543
aF1543575630.653
aF1543575630.761
aF1543575630.872
aF1543575630.985
aF1543575631.112
aF1543575631.222
aF1543575631.332
aF1543575631.467
aF1543575631.605
aF1543575631.716
aF1543575631.834
aF1543575631.967
aF1543575632.118
aF1543575632.234
aF1543575632.348
aF1543575632.462
aF1543575632.588
aF1543575632.803
aF1543575632.916
aF1543575633.026
aF1543575633.137
aF1543575633.248
aF1543575633.358
aF1543575633.467
aF1543575633.576
aF1543575633.686
aF1543575633.915
aF1543575634.027
aF1543575634.137
aF1543575634.244
aF1543575634.374
aF1543575634.496
aF1543575634.613
aF1543575634.724
aF1543575634.838
aF1543575634.954
aF1543575635.064
aF1543575635.179
aF1543575635.291
aF1543575635.41
aF1543575635.522
aF1543575635.632
aF1543575635.775
aF1543575635.904
aF1543575636.014
aF1543575636.125
aF1543575636.294
aF1543575636.424
aF1543575636.539
aF1543575636.65
aF1543575636.763
aF1543575636.882
aF1543575636.996
aF1543575637.113
aF1543575637.225
aF1543575637.337
aF1543575637.447
aF1543575637.558
aF1543575637.694
aF1543575637.908
aF1543575638.019
aF1543575638.369
aF1543575638.479
aF1543575638.617
aF1543575638.735
aF1543575638.857
aF1543575639.04
aF1543575639.212
aF1543575639.34
aF1543575639.456
aF1543575639.572
aF1543575639.686
aF1543575639.796
aF1543575639.917
aF1543575640.03
aF1543575640.14
aF1543575640.253
aF1543575640.365
aF1543575640.48
aF1543575640.594
aF1543575640.706
aF1543575640.816
aF1543575640.934
aF1543575641.046
aF1543575641.252
aF1543575641.362
aF1543575641.49
aF1543575641.602
aF1543575641.713
aF1543575641.823
aF1543575641.937
aF1543575642.053
aF1543575642.164
aF1543575642.275
aF1543575642.386
aF1543575642.496
aF1543575642.607
aF1543575642.72
aF1543575642.858
aF1543575642.996
aF1543575643.107
aF1543575643.217
aF1543575643.327
aF1543575643.458
aF1543575643.575
aF1543575643.685
aF1543575643.799
aF1543575643.91
aF1543575644.03
aF1543575644.15
aF1543575644.27
aF1543575644.385
aF1543575644.536
aF1543575644.701
aF1543575644.816
aF1543575644.926
aF1543575645.037
aF1543575645.147
aF1543575645.278
aF1543575645.393
aF1543575645.501
aF1543575645.628
aF1543575645.748
aF1543575645.868
aF1543575645.978
aF1543575646.092
aF1543575646.203
aF1543575646.312
aF1543575646.429
aF1543575646.565
aF1543575646.675
aF1543575646.788
aF1543575646.906
aF1543575647.03
aF1543575647.193
aF1543575647.311
aF1543575647.419
aF1543575647.651
aF1543575647.762
aF1543575647.877
aF1543575647.991
aF1543575648.106
aF1543575648.219
aF1543575648.338
aF1543575648.452
aF1543575648.583
aF1543575648.695
aF1543575648.807
aF1543575648.919
aF1543575649.029
aF1543575649.142
aF1543575649.255
aF1543575649.437
aF1543575649.555
aF1543575649.687
aF1543575649.798
aF1543575649.91
aF1543575650.052
aF1543575650.224
aF1543575650.335
aF1543575650.455
aF1543575650.571
aF1543575650.823
aF1543575650.937
aF1543575651.057
aF1543575651.195
aF1543575651.306
aF1543575651.587
aF1543575651.734
aF1543575651.852
aF1543575651.963
aF1543575652.09
aF1543575652.23
aF1543575652.34
aF1543575652.462
aF1543575652.574
aF1543575652.707
aF1543575652.818
aF1543575652.943
aF1543575653.076
aF1543575653.202
aF1543575653.312
aF1543575653.423
aF1543575653.551
aF1543575653.661
aF1543575653.773
aF1543575653.885
aF1543575654.012
aF1543575654.136
aF1543575654.246
aF1543575654.356
aF1543575654.47
aF1543575654.639
aF1543575654.813
aF1543575654.957
aF1543575655.071
aF1543575655.186
aF1543575655.301
aF1543575655.412
aF1543575655.53
aF1543575655.65
aF1543575655.76
aF1543575655.874
aF1543575655.99
aF1543575656.112
aF1543575656.24
aF1543575656.355
aF1543575656.473
aF1543575656.623
aF1543575656.746
aF1543575656.859
aF1543575656.973
aF1543575657.095
aF1543575657.217
aF1543575657.354
aF1543575657.495
aF1543575657.654
aF1543575657.77
aF1543575657.902
aF1543575658.057
aF1543575658.19
aF1543575658.335
aF1543575658.461
aF1543575658.594
aF1543575658.712
aF1543575658.841
aF1543575658.966
aF1543575659.098
aF1543575659.245
aF1543575659.369
aF1543575659.484
aF1543575659.601
aF1543575659.718
aF1543575659.872
aF1543575659.972
aF1543575660.12
aF1543575660.253
aF1543575660.392
aF1543575660.509
aF1543575660.64
aF1543575660.741
aF1543575660.881
aF1543575660.999
aF1543575661.105
aF1543575661.23
aF1543575661.345
aF1543575661.446
aF1543575661.578
aF1543575661.735
aF1543575661.865
aF1543575661.997
aF1543575662.423
aF1543575662.554
aF1543575662.686
aF1543575662.786
aF1543575662.906
aF1543575663.019
aF1543575663.159
aF1543575663.275
aF1543575663.423
aF1543575663.561
aF1543575663.709
aF1543575663.864
aF1543575664.013
aF1543575664.15
aF1543575664.537
aF1543575664.675
aF1543575664.83
aF1543575664.983
aF1543575665.1
asS'veh_disp_spd'
p6
(lp7
F44.70000076293945
aF44.70000076293945
aF44.900001525878906
aF44.70000076293945
aF44.900001525878906
aF45.0
aF45.29999923706055
aF45.099998474121094
aF45.20000076293945
aF45.20000076293945
aF45.099998474121094
aF45.5
aF45.599998474121094
aF45.599998474121094
aF45.79999923706055
aF45.70000076293945
aF45.70000076293945
aF45.70000076293945
aF46.20000076293945
aF46.400001525878906
aF46.29999923706055
aF46.5
aF46.5
aF46.900001525878906
aF47.20000076293945
aF47.099998474121094
aF47.20000076293945
aF47.20000076293945
aF47.099998474121094
aF47.29999923706055
aF47.29999923706055
aF47.29999923706055
aF47.5
aF47.400001525878906
aF47.5
aF47.79999923706055
aF47.599998474121094
aF47.599998474121094
aF47.599998474121094
aF47.70000076293945
aF47.79999923706055
aF47.70000076293945
aF47.900001525878906
aF48.0
aF48.0
aF48.0
aF47.900001525878906
aF48.0
aF47.79999923706055
aF47.900001525878906
aF47.79999923706055
aF47.79999923706055
aF47.70000076293945
aF47.79999923706055
aF47.5
aF47.70000076293945
aF47.20000076293945
aF47.20000076293945
aF47.20000076293945
aF47.099998474121094
aF47.099998474121094
aF47.099998474121094
aF47.20000076293945
aF47.0
aF47.20000076293945
aF47.099998474121094
aF47.29999923706055
aF47.400001525878906
aF47.29999923706055
aF47.400001525878906
aF47.20000076293945
aF47.400001525878906
aF47.5
aF47.79999923706055
aF47.79999923706055
aF48.099998474121094
aF48.0
aF47.79999923706055
aF48.20000076293945
aF48.20000076293945
aF48.20000076293945
aF48.099998474121094
aF48.099998474121094
aF47.900001525878906
aF48.099998474121094
aF48.20000076293945
aF48.20000076293945
aF48.099998474121094
aF48.0
aF48.099998474121094
aF48.099998474121094
aF47.900001525878906
aF48.099998474121094
aF47.900001525878906
aF47.900001525878906
aF47.900001525878906
aF48.0
aF47.79999923706055
aF47.79999923706055
aF47.79999923706055
aF47.599998474121094
aF47.5
aF47.20000076293945
aF47.20000076293945
aF46.599998474121094
aF46.70000076293945
aF46.5
aF46.20000076293945
aF45.79999923706055
aF45.599998474121094
aF45.20000076293945
aF45.0
aF44.70000076293945
aF44.599998474121094
aF44.20000076293945
aF43.79999923706055
aF43.20000076293945
aF43.0
aF42.5
aF42.0
aF41.5
aF41.20000076293945
aF40.900001525878906
aF40.5
aF40.29999923706055
aF40.20000076293945
aF40.099998474121094
aF39.79999923706055
aF39.5
aF39.099998474121094
aF38.599998474121094
aF38.400001525878906
aF38.29999923706055
aF38.29999923706055
aF38.099998474121094
aF37.70000076293945
aF37.79999923706055
aF37.5
aF36.70000076293945
aF34.70000076293945
aF33.0
aF31.600000381469727
aF29.299999237060547
aF27.5
aF26.100000381469727
aF25.299999237060547
aF24.5
aF23.899999618530273
aF23.200000762939453
aF21.5
aF20.799999237060547
aF20.100000381469727
aF19.299999237060547
aF18.700000762939453
aF18.200000762939453
aF17.600000381469727
aF16.5
aF16.100000381469727
aF15.5
aF15.100000381469727
aF14.800000190734863
aF14.600000381469727
aF14.399999618530273
aF14.0
aF14.0
aF14.199999809265137
aF14.300000190734863
aF14.600000381469727
aF14.800000190734863
aF15.100000381469727
aF15.899999618530273
aF16.5
aF17.399999618530273
aF18.899999618530273
aF21.100000381469727
aF22.200000762939453
aF24.299999237060547
aF25.299999237060547
aF26.299999237060547
aF27.100000381469727
aF27.799999237060547
aF30.299999237060547
aF31.5
aF32.5
aF33.70000076293945
aF34.599998474121094
aF36.599998474121094
aF38.79999923706055
aF39.79999923706055
aF41.70000076293945
aF42.70000076293945
aF43.70000076293945
aF44.5
aF45.599998474121094
aF45.599998474121094
aF45.900001525878906
aF46.5
aF46.900001525878906
aF47.20000076293945
aF47.400001525878906
aF47.79999923706055
aF48.099998474121094
aF48.70000076293945
aF48.79999923706055
aF48.79999923706055
aF49.099998474121094
aF49.400001525878906
aF49.29999923706055
aF49.400001525878906
aF49.0
aF49.0
aF48.79999923706055
aF48.70000076293945
aF49.0
aF48.70000076293945
aF48.79999923706055
aF48.5
aF48.70000076293945
aF49.20000076293945
aF49.400001525878906
aF49.599998474121094
aF50.20000076293945
aF50.5
aF51.20000076293945
aF51.20000076293945
aF51.900001525878906
aF52.29999923706055
aF52.900001525878906
aF52.900001525878906
aF52.900001525878906
aF53.79999923706055
aF56.0
aF56.70000076293945
aF58.0
aF58.900001525878906
aF59.599998474121094
aF60.29999923706055
aF60.70000076293945
aF61.29999923706055
aF61.900001525878906
aF62.29999923706055
aF63.099998474121094
aF65.0999984741211
aF65.5
aF65.5
aF65.0999984741211
aF65.0999984741211
aF64.9000015258789
aF64.30000305175781
aF64.30000305175781
aF63.400001525878906
aF63.099998474121094
aF62.599998474121094
aF62.29999923706055
aF62.0
aF61.79999923706055
aF61.400001525878906
aF61.099998474121094
aF60.70000076293945
aF60.400001525878906
aF59.900001525878906
aF59.29999923706055
aF59.29999923706055
aF58.400001525878906
aF58.099998474121094
aF57.599998474121094
aF57.099998474121094
aF56.79999923706055
aF55.79999923706055
aF55.5
aF55.29999923706055
aF54.900001525878906
aF54.400001525878906
aF53.29999923706055
aF53.5
aF52.20000076293945
aF51.29999923706055
aF50.900001525878906
aF50.400001525878906
aF49.79999923706055
aF49.20000076293945
aF48.599998474121094
aF48.0
aF46.5
aF45.79999923706055
aF45.29999923706055
aF44.400001525878906
aF43.5
aF41.79999923706055
aF40.70000076293945
aF40.29999923706055
aF39.900001525878906
aF39.29999923706055
aF38.79999923706055
aF38.29999923706055
aF38.0
aF37.70000076293945
aF37.400001525878906
aF37.20000076293945
aF36.900001525878906
aF36.29999923706055
aF36.099998474121094
aF35.79999923706055
aF35.599998474121094
aF35.79999923706055
aF35.599998474121094
aF35.900001525878906
aF36.0
aF36.0
aF36.0
aF36.20000076293945
aF36.20000076293945
aF36.20000076293945
aF36.20000076293945
aF36.20000076293945
aF36.29999923706055
aF36.5
aF36.400001525878906
aF36.599998474121094
aF36.599998474121094
aF36.599998474121094
aF36.5
aF36.5
aF36.29999923706055
aF36.20000076293945
aF36.0
aF35.79999923706055
aF35.79999923706055
aF35.79999923706055
aF35.5
aF35.20000076293945
aF34.099998474121094
aF33.70000076293945
aF33.099998474121094
aF30.799999237060547
aF29.0
aF28.399999618530273
aF27.700000762939453
aF26.700000762939453
aF26.100000381469727
aF25.600000381469727
aF24.600000381469727
aF24.299999237060547
aF24.0
aF24.0
aF24.0
aF22.899999618530273
aF22.5
aF22.0
aF21.700000762939453
aF21.200000762939453
aF20.700000762939453
aF20.399999618530273
aF20.200000762939453
aF19.899999618530273
aF19.799999237060547
aF19.399999618530273
aF19.5
aF19.5
aF19.5
aF19.5
aF19.5
aF19.5
aF18.899999618530273
aF18.799999237060547
aF18.700000762939453
aF18.700000762939453
aF18.399999618530273
aF18.399999618530273
aF18.299999237060547
aF17.899999618530273
aF17.899999618530273
aF17.399999618530273
aF17.299999237060547
aF16.899999618530273
aF16.899999618530273
aF16.799999237060547
aF16.700000762939453
aF16.5
aF16.299999237060547
aF16.299999237060547
aF16.100000381469727
aF17.700000762939453
aF22.600000381469727
aF23.299999237060547
aF23.600000381469727
aF23.899999618530273
aF24.100000381469727
aF24.100000381469727
aF24.200000762939453
aF24.200000762939453
aF24.0
aF24.0
aF24.0
aF23.899999618530273
aF24.0
aF24.0
aF24.100000381469727
aF24.299999237060547
aF24.299999237060547
aF24.399999618530273
aF24.399999618530273
aF24.299999237060547
aF24.200000762939453
aF24.200000762939453
aF24.200000762939453
aF24.200000762939453
aF24.200000762939453
aF24.200000762939453
aF24.200000762939453
aF24.200000762939453
aF24.200000762939453
aF24.200000762939453
aF24.200000762939453
aF24.200000762939453
aF24.200000762939453
aF24.200000762939453
aF24.200000762939453
aF24.200000762939453
aF24.200000762939453
aF24.200000762939453
aF24.200000762939453
aF24.200000762939453
aF24.200000762939453
aF24.200000762939453
aF24.200000762939453
aF24.200000762939453
aF24.200000762939453
aF24.200000762939453
aF24.200000762939453
aF24.200000762939453
aF24.200000762939453
aF24.200000762939453
aF24.200000762939453
aF24.200000762939453
aF24.200000762939453
aF24.200000762939453
aF24.200000762939453
aF24.200000762939453
aF24.200000762939453
aF24.200000762939453
aF24.200000762939453
aF24.200000762939453
aF24.200000762939453
aF24.200000762939453
aF24.200000762939453
aF24.200000762939453
aF24.200000762939453
aF24.200000762939453
aF24.200000762939453
aF24.200000762939453
aF24.200000762939453
aF24.200000762939453
aF24.200000762939453
aF24.200000762939453
aF24.200000762939453
aF24.200000762939453
aF24.200000762939453
aF24.200000762939453
asS'veh_acc'
p8
(lp9
F0.582408792452414
aF0.5656854270565804
aF0.4079215665814561
aF0.23999999463558197
aF0.17888543420158204
aF0.4000000059604645
aF0.1599999964237213
aF0.0
aF0.2262741649220734
aF0.23999999463558197
aF0.17888543420158204
aF0.23999999463558197
aF0.3298484426767255
aF0.23999999463558197
aF0.17888543420158204
aF0.23999999463558197
aF0.23999999463558197
aF0.28844409558989104
aF0.4079215665814561
aF0.5768881911797821
aF0.4525483298441468
aF0.5122499391808016
aF0.23999999463558197
aF0.28844409558989104
aF0.3298484426767255
aF0.6449806054474437
aF0.43081318877671615
aF0.2262741649220734
aF0.17888543420158204
aF0.25298220715887726
aF0.25298220715887726
aF0.3199999928474426
aF0.43081318877671615
aF0.1131370824610367
aF0.3577708684031641
aF0.5059644143177545
aF0.2262741649220734
aF0.1599999964237213
aF0.1599999964237213
aF0.659696885353451
aF0.25298220715887726
aF0.3298484426767255
aF0.1599999964237213
aF0.4000000059604645
aF0.4000000059604645
aF0.07999999821186066
aF0.3199999928474426
aF0.3199999928474426
aF0.23999999463558197
aF0.1131370824610367
aF0.4000000059604645
aF0.1131370824610367
aF0.25298220715887726
aF0.25298220715887726
aF0.23999999463558197
aF0.1599999964237213
aF0.2262741649220734
aF0.07999999821186066
aF0.23999999463558197
aF0.1131370824610367
aF0.3298484426767255
aF0.0
aF0.6399999856948853
aF0.1131370824610367
aF0.25298220715887726
aF0.737563583736563
aF0.4000000059604645
aF0.33941124738311007
aF0.4079215665814561
aF0.7244308392887682
aF0.800000011920929
aF0.6835202843475332
aF0.6092618485473774
aF0.17888543420158204
aF0.17888543420158204
aF0.3199999928474426
aF0.3298484426767255
aF0.07999999821186066
aF0.25298220715887726
aF0.25298220715887726
aF0.07999999821186066
aF0.4000000059604645
aF0.0
aF0.1131370824610367
aF0.5656854270565804
aF0.0
aF0.25298220715887726
aF0.07999999821186066
aF0.4866209915470306
aF0.25298220715887726
aF0.8836288764643014
aF0.07999999821186066
aF0.4079215665814561
aF0.737563583736563
aF0.17888543420158204
aF0.2262741649220734
aF0.1131370824610367
aF0.23999999463558197
aF0.07999999821186066
aF0.07999999821186066
aF0.25298220715887726
aF0.3199999928474426
aF0.17888543420158204
aF0.25298220715887726
aF0.582408792452414
aF0.7547184815928553
aF0.3999999910593033
aF0.5656854333786078
aF0.6788224947662201
aF0.4664761539387099
aF0.6449806183852748
aF0.6881860267679515
aF0.5656854270565804
aF0.7999999821186066
aF0.8836288764643014
aF0.9121403340674863
aF1.0399999618530273
aF1.1200000047683716
aF1.2237647289679499
aF1.189285506280777
aF0.9666436760130579
aF0.8236504391834578
aF0.835224530589569
aF0.9633275781831353
aF0.6449806183852748
aF1.0430723820895433
aF0.4866209915470306
aF1.2521980727310837
aF0.7200000286102295
aF0.6449806183852748
aF0.659696885353451
aF0.6449806183852748
aF0.5122499391808016
aF0.9329523078774198
aF0.8504116558230734
aF0.8836288764643014
aF0.582408792452414
aF1.0430723466606695
aF1.649242203987065
aF1.7888544086558393
aF1.7762882547198648
aF1.934941816342331
aF2.240000009536743
aF2.240000009536743
aF2.1600000858306885
aF2.24570702487662
aF2.1614810594827056
aF2.0143485292831227
aF2.00159936044002
aF1.934941816342331
aF2.1181122933842684
aF2.02543822305751
aF1.8048822596499297
aF1.4945233921097711
aF1.3971399480124658
aF1.2924395940009104
aF1.4422205672187671
aF1.6876017962234398
aF1.2185236970947548
aF1.3600000143051147
aF0.6449806183852748
aF0.4664761539387099
aF0.4664761539387099
aF0.3577708684031641
aF0.2262741649220734
aF0.5768881911797821
aF0.6881860267679515
aF0.6092618485473774
aF0.9765244603919425
aF1.1142710287101025
aF1.6492422271170646
aF1.9233304774540285
aF2.2627417082263217
aF2.872211641690188
aF3.0880414857054213
aF3.341855741052619
aF3.3959976154179734
aF3.2397530428641566
aF2.827295495959376
aF2.7550680951739492
aF2.6119723973823894
aF3.087005123123057
aF3.219938015548533
aF3.4353456659207313
aF3.257483732076032
aF3.151634589532472
aF2.9599999479345374
aF2.907645209434616
aF2.9772470877057624
aF2.8011425762865216
aF2.8011425762865216
aF2.8011425762865216
aF2.561249637724748
aF1.475127167473126
aF0.7589466638860801
aF1.0522356767900853
aF0.9633275447713346
aF0.7244308392887682
aF0.6399999856948853
aF0.7200000286102295
aF0.6449806054474437
aF0.7547184815928553
aF0.6881860267679515
aF0.3999999910593033
aF0.9765244603919425
aF0.6248199696462087
aF1.0399999618530273
aF1.0522356767900853
aF1.3971399480124658
aF1.5533190069779501
aF1.3810141332857502
aF1.6079801227470247
aF0.737563583736563
aF0.17888543420158204
aF0.4000000059604645
aF0.787908647383118
aF0.28844409558989104
aF0.6399999856948853
aF0.8836288764643014
aF0.8616263775534323
aF1.0399999824854045
aF1.3242356727981648
aF1.302305618579177
aF1.164817584904828
aF1.319393770706902
aF1.12285351243831
aF1.067333086753792
aF1.3693794352791717
aF1.3693794352791717
aF1.302305618579177
aF1.9199999570846558
aF2.5120509746764426
aF2.2627417082263217
aF2.3528706050106836
aF2.406657364881017
aF2.2584950020367236
aF2.2542404309776494
aF1.3120975343806514
aF1.7977763767548711
aF1.8137254900758364
aF2.1525799035317763
aF2.044309146651984
aF3.2800000528009927
aF2.079999964970809
aF0.7589466638860801
aF0.6788224947662201
aF0.25298220715887726
aF0.5600000023841858
aF0.4079215665814561
aF0.47999998927116394
aF0.9363759859319489
aF0.5059644143177545
aF0.6788224947662201
aF0.5768881911797821
aF0.8504116558230734
aF1.3600000353420487
aF1.6198765214320783
aF1.5388307509627703
aF1.7120747529136136
aF1.4422205564733872
aF1.9349418034045
aF1.8659046157548396
aF1.8965230859044808
aF2.2908512918604
aF2.1540659538450546
aF1.7120747529136136
aF1.9758541809595382
aF1.4243595059846437
aF1.1537763823595641
aF1.1537763823595641
aF1.0733126052094923
aF1.2000000000000006
aF1.2419340199315274
aF1.3623508770731438
aF1.0881176021352938
aF1.7472263200459484
aF1.6970562221641534
aF1.3600000143051147
aF1.3693794352791717
aF1.4488616785775363
aF1.7102046132505175
aF1.681903630852519
aF1.8417383425848393
aF2.1614810594827056
aF2.1835751340888057
aF2.3255106297547163
aF2.5712253313267457
aF2.3213788337883337
aF2.3691347956473274
aF2.5120509746764426
aF2.1044713535801707
aF1.5199999809265137
aF1.3600000143051147
aF1.1200000047683716
aF0.9363759859319489
aF0.9633275447713346
aF0.9121403340674863
aF0.8616263775534323
aF0.8616263775534323
aF0.9765244603919425
aF0.5059644143177545
aF0.6092618485473774
aF0.47999998927116394
aF0.3199999928474426
aF0.4664761539387099
aF0.47999998927116394
aF0.582408792452414
aF0.28844409558989104
aF0.43081318877671615
aF0.17888543420158204
aF0.5059644143177545
aF0.5059644143177545
aF0.5059644143177545
aF0.3577708684031641
aF0.28844409558989104
aF0.3577708684031641
aF0.3298484426767255
aF0.3199999928474426
aF0.3199999928474426
aF0.23999999463558197
aF0.23999999463558197
aF0.1599999964237213
aF0.3577708684031641
aF0.3199999928474426
aF0.43081318877671615
aF0.47999998927116394
aF0.5656854270565804
aF0.5656854270565804
aF0.5656854270565804
aF0.8836288764643014
aF0.8944271856687144
aF1.2026637577289914
aF1.2000000476837158
aF1.3623509234495383
aF1.3600000143051147
aF1.6019987752828788
aF1.6799999475479126
aF1.6019987752828788
aF1.6799999475479126
aF1.6019987752828788
aF1.6178998960748545
aF1.440000057220459
aF1.145425688600632
aF0.659696885353451
aF0.659696885353451
aF0.659696885353451
aF0.800000011920929
aF1.0881176021352938
aF0.9599999785423279
aF1.0881176021352938
aF0.9895453280301764
aF0.787908647383118
aF0.47999998927116394
aF0.5600000023841858
aF0.43081318877671615
aF0.4525483298441468
aF0.5122499391808016
aF0.5122499391808016
aF0.5122499391808016
aF0.5122499391808016
aF0.4525483298441468
aF0.6881860267679515
aF0.6248199696462087
aF0.5122499391808016
aF0.787908647383118
aF0.9363759859319489
aF1.0881176021352938
aF1.0399999824854045
aF0.8944272043279197
aF0.8616263775534323
aF1.111395501822622
aF1.111395501822622
aF0.9329523078774198
aF1.0023971175676751
aF0.6835202843475332
aF0.6835202843475332
aF0.6835202843475332
aF0.659696885353451
aF0.6092618485473774
aF0.5366563026047462
aF0.5122499391808016
aF0.4000000059604645
aF2.4212394456529993
aF1.9082976699006484
aF1.7888544086558393
aF1.770875440687819
aF1.6198765214320783
aF1.8676188364480628
aF1.9199999570846558
aF2.1600000858306885
aF2.1600000858306885
aF1.840000033378601
aF1.840000033378601
aF1.681903630852519
aF1.4422205201044083
aF1.459863062831581
aF1.1142710287101025
aF1.3410443436091832
aF1.4945233921097711
aF1.0399999824854045
aF1.319393770706902
aF1.2106197228264997
aF1.1200000047683716
aF0.8799999952316284
aF0.8799999952316284
aF1.067333086753792
aF1.067333086753792
aF1.067333086753792
aF1.067333086753792
aF1.067333086753792
aF1.067333086753792
aF1.067333086753792
aF1.067333086753792
aF1.067333086753792
aF1.067333086753792
aF1.067333086753792
aF1.067333086753792
aF1.067333086753792
aF1.067333086753792
aF1.067333086753792
aF1.067333086753792
aF1.067333086753792
aF1.067333086753792
aF1.067333086753792
aF1.067333086753792
aF1.067333086753792
aF1.067333086753792
aF1.067333086753792
aF1.067333086753792
aF1.067333086753792
aF1.067333086753792
aF1.067333086753792
aF1.067333086753792
aF1.067333086753792
aF1.067333086753792
aF1.067333086753792
aF1.067333086753792
aF1.067333086753792
aF1.067333086753792
aF1.067333086753792
aF1.067333086753792
aF1.067333086753792
aF1.067333086753792
aF1.067333086753792
aF1.067333086753792
aF1.067333086753792
aF1.067333086753792
aF1.067333086753792
aF1.067333086753792
aF1.067333086753792
aF1.067333086753792
aF1.067333086753792
aF1.067333086753792
aF1.067333086753792
aF1.067333086753792
aF1.067333086753792
aF1.067333086753792
aF1.067333086753792
aF1.067333086753792
asS'stw_ang'
p10
(lp11
F-2.5
aF-2.0
aF0.0
aF1.5
aF3.0
aF4.5
aF4.0
aF3.5
aF2.5
aF2.5
aF2.5
aF2.5
aF2.5
aF2.5
aF2.5
aF2.0
aF2.0
aF2.0
aF0.0
aF-0.5
aF-0.5
aF-0.5
aF0.0
aF0.0
aF0.5
aF0.0
aF0.0
aF0.0
aF0.0
aF0.5
aF0.5
aF0.0
aF-1.0
aF-2.0
aF-2.0
aF-2.0
aF-2.5
aF-2.5
aF-2.5
aF-2.5
aF-2.5
aF-0.5
aF0.0
aF0.0
aF0.0
aF0.0
aF0.0
aF0.0
aF0.0
aF0.0
aF0.0
aF-0.5
aF-0.5
aF0.5
aF3.5
aF4.0
aF3.0
aF2.0
aF1.5
aF1.0
aF0.0
aF-1.5
aF-2.0
aF-2.5
aF-3.0
aF-4.0
aF-4.5
aF-5.0
aF-4.5
aF-4.5
aF-3.0
aF-1.0
aF0.5
aF2.0
aF2.5
aF2.5
aF2.5
aF2.5
aF2.5
aF3.0
aF2.5
aF3.0
aF2.5
aF3.0
aF2.5
aF2.5
aF2.5
aF3.0
aF4.5
aF5.5
aF5.5
aF4.5
aF3.5
aF3.0
aF3.0
aF1.5
aF2.5
aF3.5
aF5.0
aF6.0
aF3.5
aF0.5
aF-1.0
aF-3.0
aF-4.5
aF-4.0
aF-4.5
aF-4.0
aF-3.5
aF-3.5
aF-3.0
aF-2.5
aF-1.0
aF0.0
aF0.5
aF2.5
aF6.0
aF9.5
aF12.0
aF14.5
aF14.0
aF14.5
aF15.0
aF15.5
aF16.0
aF16.0
aF15.0
aF12.5
aF11.5
aF10.5
aF12.5
aF15.5
aF17.5
aF19.5
aF21.5
aF26.5
aF28.0
aF29.0
aF29.5
aF18.0
aF17.5
aF10.0
aF4.0
aF2.0
aF1.5
aF1.0
aF0.5
aF-2.0
aF-5.0
aF-9.5
aF-13.5
aF-17.5
aF-18.5
aF-19.0
aF-18.5
aF-18.0
aF-12.0
aF-10.5
aF-10.5
aF-10.5
aF-11.0
aF-11.0
aF-11.5
aF-11.5
aF-11.5
aF-11.5
aF-11.5
aF-11.5
aF-12.5
aF-15.0
aF-18.0
aF-20.5
aF-24.5
aF-31.0
aF-34.0
aF-39.0
aF-41.0
aF-42.0
aF-43.0
aF-43.5
aF-43.5
aF-42.5
aF-41.0
aF-39.0
aF-36.0
aF-30.0
aF-19.0
aF-6.0
aF-3.0
aF0.0
aF-0.5
aF-0.5
aF-1.5
aF-2.5
aF-2.0
aF0.0
aF2.5
aF3.5
aF5.5
aF7.0
aF9.5
aF13.0
aF15.0
aF16.5
aF17.5
aF20.0
aF25.0
aF27.0
aF28.5
aF29.5
aF29.5
aF27.5
aF22.5
aF16.5
aF12.5
aF4.0
aF5.5
aF6.0
aF9.0
aF12.0
aF12.0
aF11.0
aF11.0
aF8.5
aF8.5
aF5.0
aF3.5
aF1.5
aF1.5
aF0.5
aF-1.0
aF-4.0
aF-5.0
aF-7.0
aF-7.5
aF-8.5
aF-10.0
aF-11.0
aF-11.5
aF-12.0
aF-11.5
aF-10.5
aF-8.5
aF-5.5
aF-2.0
aF0.0
aF0.0
aF0.5
aF1.0
aF2.0
aF7.0
aF8.5
aF10.0
aF10.5
aF12.5
aF17.5
aF18.5
aF19.0
aF21.0
aF21.5
aF23.0
aF25.5
aF25.5
aF26.0
aF21.0
aF17.5
aF17.0
aF12.5
aF10.0
aF10.0
aF10.0
aF12.5
aF15.5
aF14.0
aF11.0
aF6.0
aF2.5
aF0.0
aF-1.0
aF-1.5
aF-1.5
aF-1.5
aF-0.5
aF1.0
aF0.0
aF-1.5
aF-2.0
aF-5.0
aF-6.0
aF-5.5
aF-2.5
aF-0.5
aF3.5
aF6.5
aF8.5
aF12.0
aF14.0
aF14.5
aF14.0
aF13.0
aF10.0
aF7.0
aF2.0
aF-3.0
aF-6.5
aF-7.0
aF-7.0
aF-7.0
aF-6.5
aF-6.5
aF-5.5
aF-5.5
aF-5.5
aF-5.5
aF-5.0
aF-4.5
aF-3.5
aF-1.0
aF-1.0
aF0.5
aF0.5
aF1.0
aF1.5
aF2.0
aF2.5
aF3.5
aF5.0
aF5.0
aF5.0
aF5.5
aF6.5
aF5.0
aF5.0
aF4.5
aF-1.0
aF-1.5
aF-1.0
aF-1.0
aF-1.5
aF-1.5
aF-2.0
aF-2.5
aF-3.0
aF-4.0
aF-4.0
aF-4.0
aF-4.0
aF-4.0
aF-4.0
aF-4.0
aF-4.0
aF0.0
aF2.5
aF4.5
aF9.5
aF15.0
aF30.5
aF33.5
aF34.0
aF34.0
aF35.0
aF36.0
aF36.5
aF44.5
aF53.0
aF59.5
aF61.5
aF64.5
aF69.5
aF75.5
aF90.5
aF90.5
aF102.5
aF104.5
aF103.0
aF103.0
aF100.5
aF96.5
aF92.0
aF89.5
aF88.5
aF87.0
aF84.0
aF86.0
aF88.5
aF91.5
aF95.5
aF99.5
aF103.0
aF103.0
aF103.0
aF101.5
aF101.0
aF94.0
aF80.5
aF76.5
aF77.0
aF76.5
aF75.0
aF74.5
aF73.5
aF69.5
aF64.5
aF63.5
aF63.5
aF63.0
aF63.0
aF63.0
aF63.0
aF63.0
aF63.0
aF63.0
aF63.0
aF63.0
aF63.0
aF63.0
aF63.0
aF63.0
aF63.0
aF63.0
aF63.0
aF63.0
aF63.0
aF63.0
aF63.0
aF63.0
aF63.0
aF63.0
aF63.0
aF63.0
aF63.0
aF63.0
aF63.0
aF63.0
aF63.0
aF63.0
aF63.0
aF63.0
aF63.0
aF63.0
aF63.0
aF63.0
aF63.0
aF63.0
aF63.0
aF63.0
aF63.0
aF63.0
aF63.0
aF63.0
aF63.0
aF63.0
aF63.0
aF63.0
aF63.0
aF63.0
aF63.0
aF63.0
aF63.0
as.