ccollections
defaultdict
p0
(c__builtin__
list
p1
tp2
Rp3
S'time_stamp'
p4
(lp5
F1543573662.656
asS'veh_disp_spd'
p6
(lp7
F24.200000762939453
asS'veh_acc'
p8
(lp9
F1.067333086753792
asS'stw_ang'
p10
(lp11
F63.0
as.